; Function Attrs: nounwind uwtable
define range(i32 -1, 1) i32 @H5HF__space_create_root(ptr nocapture noundef readonly %0, ptr noundef %1) local_unnamed_addr #0 {
  %3 = getelementptr inbounds i8, ptr %0, i64 640
  %4 = load ptr, ptr %3, align 8
  %.not = icmp eq ptr %4, null
  br i1 %.not, label %14, label %5

5:                                                ; preds = %2
  %6 = getelementptr inbounds i8, ptr %0, i64 600
  %7 = load ptr, ptr %6, align 8
  %8 = tail call i32 @H5FS_sect_iterate(ptr noundef %7, ptr noundef nonnull %4, ptr noundef nonnull @H5HF__space_create_root_cb, ptr noundef %1) #4
  %9 = icmp slt i32 %8, 0
  br i1 %9, label %10, label %14

10:                                               ; preds = %5
  %11 = load i64, ptr @H5E_FSPACE_g, align 8
  %12 = load i64, ptr @H5E_BADITER_g, align 8
  %13 = tail call i32 (ptr, ptr, i32, i64, i64, ptr, ...) @H5E_printf_stack(ptr noundef nonnull @.str, ptr noundef nonnull @__func__.H5HF__space_create_root, i32 noundef 366, i64 noundef %11, i64 noundef %12, ptr noundef nonnull @.str.6) #4
  br label %14

14:                                               ; preds = %2, %5, %10
  %.0 = phi i32 [ -1, %10 ], [ 0, %5 ], [ 0, %2 ]
  ret i32 %.0
}